target datalayout = "e-m:e-p270:32:32-p271:32:32-p272:64:64-i64:64-i128:128-f80:128-n8:16:32:64-S128"
target triple = "x86_64-pc-linux-gnu"

%struct.expert_field = type { i32, i32 }
%struct._packet_info = type { ptr, ptr, i32, i32, %struct.nstime_t, %struct.nstime_t, %struct.nstime_t, i8, ptr, ptr, ptr, ptr, %struct._address, %struct._address, %struct._address, %struct._address, %struct._address, %struct._address, i32, ptr, i8, [3 x i8], %struct.anon, i32, i32, i32, i32, ptr, i8, ptr, ptr, i16, i16, i32, i32, i16, i32, i32, ptr, ptr, ptr, i8, i8, i16, i16, i16, i32, i16, i16, ptr, ptr, ptr, ptr, ptr, i32, i32 }
%struct.nstime_t = type { i64, i32 }
%struct._address = type { i32, i32, ptr, ptr }
%struct.anon = type { i8, [3 x i8] }
%struct._MAD = type { i8, i8, i8, i8, i16, i8, i8, i64, i16, i16, i32 }

@hf_opa_unknown = internal global i32 0, align 4
@ei_opa_mad_no_attribute_dissector = internal global %struct.expert_field zeroinitializer, align 4
@pref_parse_on_mad_status_error = internal global i8 0, align 1
@.str.2274 = private unnamed_addr constant [43 x i8] c"Attribute Dissector Not Implemented (0x%x)\00", align 1
@.str.2507 = private unnamed_addr constant [37 x i8] c"Unknown: (Dissector Not Implemented)\00", align 1

; Function Attrs: null_pointer_is_valid sspstrong uwtable
define internal void @parse_UNKNOWN_MANAGEMENT(ptr noundef %0, ptr noundef %1, ptr noundef %2, ptr noundef %3) #0 {
  %5 = alloca ptr, align 8
  %6 = alloca ptr, align 8
  %7 = alloca ptr, align 8
  %8 = alloca ptr, align 8
  %9 = alloca %struct._MAD, align 8
  %10 = alloca i32, align 4
  store ptr %0, ptr %5, align 8
  store ptr %1, ptr %6, align 8
  store ptr %2, ptr %7, align 8
  store ptr %3, ptr %8, align 8
  call void @llvm.lifetime.start.p0(i64 24, ptr %9) #7
  %11 = load ptr, ptr %5, align 8
  %12 = load ptr, ptr %6, align 8
  %13 = load ptr, ptr %7, align 8
  %14 = load ptr, ptr %8, align 8
  %15 = call zeroext i1 @parse_MAD_Common(ptr noundef %11, ptr noundef %12, ptr noundef %13, ptr noundef %14, ptr noundef %9)
  br i1 %15, label %17, label %16

16:                                               ; preds = %4
  store i32 1, ptr %10, align 4
  br label %55

17:                                               ; preds = %4
  %18 = load i8, ptr @pref_parse_on_mad_status_error, align 1, !range !8, !noundef !9
  %19 = trunc i8 %18 to i1
  br i1 %19, label %33, label %20

20:                                               ; preds = %17
  %21 = getelementptr inbounds nuw %struct._MAD, ptr %9, i32 0, i32 4
  %22 = load i16, ptr %21, align 4
  %23 = zext i16 %22 to i32
  %24 = icmp ne i32 %23, 0
  br i1 %24, label %25, label %33

25:                                               ; preds = %20
  %26 = load ptr, ptr %7, align 8
  %27 = load ptr, ptr %8, align 8
  %28 = load i32, ptr %27, align 4
  %29 = call i32 @tvb_captured_length_remaining(ptr noundef %26, i32 noundef %28)
  %30 = load ptr, ptr %8, align 8
  %31 = load i32, ptr %30, align 4
  %32 = add i32 %31, %29
  store i32 %32, ptr %30, align 4
  store i32 1, ptr %10, align 4
  br label %55

33:                                               ; preds = %20, %17
  %34 = load ptr, ptr %5, align 8
  %35 = load i32, ptr @hf_opa_unknown, align 4
  %36 = load ptr, ptr %7, align 8
  %37 = load ptr, ptr %8, align 8
  %38 = load i32, ptr %37, align 4
  %39 = call ptr @proto_tree_add_item(ptr noundef %34, i32 noundef %35, ptr noundef %36, i32 noundef %38, i32 noundef -1, i32 noundef 0)
  %40 = load ptr, ptr %6, align 8
  %41 = getelementptr inbounds nuw %struct._packet_info, ptr %40, i32 0, i32 1
  %42 = load ptr, ptr %41, align 8
  call void @col_append_str(ptr noundef %42, i32 noundef 25, ptr noundef @.str.2507)
  %43 = load ptr, ptr %6, align 8
  %44 = getelementptr inbounds nuw %struct._MAD, ptr %9, i32 0, i32 8
  %45 = load i16, ptr %44, align 8
  %46 = zext i16 %45 to i32
  %47 = call ptr (ptr, ptr, ptr, ptr, ...) @expert_add_info_format(ptr noundef %43, ptr noundef null, ptr noundef @ei_opa_mad_no_attribute_dissector, ptr noundef @.str.2274, i32 noundef %46)
  %48 = load ptr, ptr %7, align 8
  %49 = load ptr, ptr %8, align 8
  %50 = load i32, ptr %49, align 4
  %51 = call i32 @tvb_captured_length_remaining(ptr noundef %48, i32 noundef %50)
  %52 = load ptr, ptr %8, align 8
  %53 = load i32, ptr %52, align 4
  %54 = add i32 %53, %51
  store i32 %54, ptr %52, align 4
  store i32 1, ptr %10, align 4
  br label %55

55:                                               ; preds = %33, %25, %16
  call void @llvm.lifetime.end.p0(i64 24, ptr %9) #7
  ret void
}