; Function Attrs: null_pointer_is_valid sspstrong uwtable
define internal fastcc void @parse_UNKNOWN_MANAGEMENT(ptr noundef %0, ptr noundef %1, ptr noundef %2, ptr noundef captures(none) %3) unnamed_addr #0 {
  %5 = alloca %struct._MAD, align 8
  call void @llvm.lifetime.start.p0(i64 24, ptr nonnull %5) #5
  %6 = call fastcc zeroext i1 @parse_MAD_Common(ptr noundef %0, ptr noundef %1, ptr noundef %2, ptr noundef %3, ptr noundef nonnull %5)
  br i1 %6, label %7, label %27

7:                                                ; preds = %4
  %8 = load i8, ptr @pref_parse_on_mad_status_error, align 1, !range !8, !noundef !9
  %9 = trunc nuw i8 %8 to i1
  %10 = getelementptr inbounds nuw i8, ptr %5, i64 4
  %11 = load i16, ptr %10, align 4
  %12 = icmp eq i16 %11, 0
  %or.cond.not = select i1 %9, i1 true, i1 %12
  br i1 %or.cond.not, label %13, label %.sink.split

13:                                               ; preds = %7
  %14 = load i32, ptr @hf_opa_unknown, align 4
  %15 = load i32, ptr %3, align 4
  %16 = call ptr @proto_tree_add_item(ptr noundef %0, i32 noundef %14, ptr noundef %2, i32 noundef %15, i32 noundef -1, i32 noundef 0)
  %17 = getelementptr inbounds nuw i8, ptr %1, i64 8
  %18 = load ptr, ptr %17, align 8
  call void @col_append_str(ptr noundef %18, i32 noundef 25, ptr noundef nonnull @.str.2507)
  %19 = getelementptr inbounds nuw i8, ptr %5, i64 16
  %20 = load i16, ptr %19, align 8
  %21 = zext i16 %20 to i32
  %22 = call ptr (ptr, ptr, ptr, ptr, ...) @expert_add_info_format(ptr noundef %1, ptr noundef null, ptr noundef nonnull @ei_opa_mad_no_attribute_dissector, ptr noundef nonnull @.str.2274, i32 noundef %21)
  br label %.sink.split

.sink.split:                                      ; preds = %7, %13
  %23 = load i32, ptr %3, align 4
  %24 = call i32 @tvb_captured_length_remaining(ptr noundef %2, i32 noundef %23)
  %25 = load i32, ptr %3, align 4
  %26 = add i32 %25, %24
  store i32 %26, ptr %3, align 4
  br label %27

27:                                               ; preds = %.sink.split, %4
  call void @llvm.lifetime.end.p0(i64 24, ptr nonnull %5) #5
  ret void
}